target datalayout = "e-m:e-p270:32:32-p271:32:32-p272:64:64-i64:64-i128:128-f80:128-n8:16:32:64-S128"
target triple = "x86_64-pc-linux-gnu"

%struct._GList = type { ptr, ptr, ptr }
%struct._extcap_token_sentence = type { ptr, ptr }
%struct._extcap_dlt = type { i32, ptr, ptr }

@.str.31 = private unnamed_addr constant [3 x i8] c"%d\00", align 1
@.str.62 = private unnamed_addr constant [4 x i8] c"dlt\00", align 1
@.str.63 = private unnamed_addr constant [27 x i8] c"No number in DLT sentence\0A\00", align 1
@.str.64 = private unnamed_addr constant [32 x i8] c"Invalid number in DLT sentence\0A\00", align 1
@.str.65 = private unnamed_addr constant [25 x i8] c"No name in DLT sentence\0A\00", align 1
@.str.66 = private unnamed_addr constant [28 x i8] c"No display in DLT sentence\0A\00", align 1

; Function Attrs: null_pointer_is_valid sspstrong uwtable
define internal void @extcap_free_tokenized_sentences(ptr noundef %0) #0 {
  %2 = alloca ptr, align 8
  store ptr %0, ptr %2, align 8
  %3 = load ptr, ptr %2, align 8
  %4 = icmp eq ptr %3, null
  br i1 %4, label %5, label %6

5:                                                ; preds = %1
  br label %9

6:                                                ; preds = %1
  %7 = load ptr, ptr %2, align 8
  call void @g_list_foreach(ptr noundef %7, ptr noundef @extcap_free_tokenized_sentence, ptr noundef null)
  %8 = load ptr, ptr %2, align 8
  call void @g_list_free(ptr noundef %8)
  br label %9

9:                                                ; preds = %6, %5
  ret void
}

; Function Attrs: null_pointer_is_valid sspstrong uwtable
define internal ptr @extcap_parse_dlt_sentence(ptr noundef %0) #0 {
  %2 = alloca ptr, align 8
  %3 = alloca ptr, align 8
  %4 = alloca ptr, align 8
  %5 = alloca i32, align 4
  %6 = alloca ptr, align 8
  %7 = alloca i32, align 4
  %8 = alloca i64, align 8
  %9 = alloca i64, align 8
  %10 = alloca ptr, align 8
  %11 = alloca ptr, align 8
  store ptr %0, ptr %3, align 8
  call void @llvm.lifetime.start.p0(i64 8, ptr %4) #10
  store ptr null, ptr %4, align 8
  call void @llvm.lifetime.start.p0(i64 4, ptr %5) #10
  store i32 0, ptr %5, align 4
  call void @llvm.lifetime.start.p0(i64 8, ptr %6) #10
  store ptr null, ptr %6, align 8
  %12 = load ptr, ptr %3, align 8
  %13 = icmp eq ptr %12, null
  br i1 %13, label %14, label %16

14:                                               ; preds = %1
  %15 = load ptr, ptr %6, align 8
  store ptr %15, ptr %2, align 8
  store i32 1, ptr %7, align 4
  br label %112

16:                                               ; preds = %1
  %17 = load ptr, ptr %3, align 8
  %18 = getelementptr inbounds nuw %struct._extcap_token_sentence, ptr %17, i32 0, i32 0
  %19 = load ptr, ptr %18, align 8
  %20 = call i32 @g_ascii_strcasecmp(ptr noundef %19, ptr noundef @.str.62)
  %21 = icmp eq i32 %20, 0
  br i1 %21, label %22, label %23

22:                                               ; preds = %16
  store i32 5, ptr %5, align 4
  br label %23

23:                                               ; preds = %22, %16
  %24 = load i32, ptr %5, align 4
  %25 = icmp eq i32 %24, 0
  br i1 %25, label %26, label %28

26:                                               ; preds = %23
  %27 = load ptr, ptr %6, align 8
  store ptr %27, ptr %2, align 8
  store i32 1, ptr %7, align 4
  br label %112

28:                                               ; preds = %23
  call void @llvm.lifetime.start.p0(i64 8, ptr %8) #10
  store i64 1, ptr %8, align 8
  call void @llvm.lifetime.start.p0(i64 8, ptr %9) #10
  store i64 24, ptr %9, align 8
  call void @llvm.lifetime.start.p0(i64 8, ptr %10) #10
  %29 = load i64, ptr %9, align 8
  %30 = icmp eq i64 %29, 1
  br i1 %30, label %31, label %34

31:                                               ; preds = %28
  %32 = load i64, ptr %8, align 8
  %33 = call noalias ptr @g_malloc0(i64 noundef %32) #11
  store ptr %33, ptr %10, align 8
  br label %55

34:                                               ; preds = %28
  %35 = load i64, ptr %8, align 8
  %36 = call i1 @llvm.is.constant.i64(i64 %35)
  br i1 %36, label %37, label %50

37:                                               ; preds = %34
  %38 = load i64, ptr %9, align 8
  %39 = icmp eq i64 %38, 0
  br i1 %39, label %45, label %40

40:                                               ; preds = %37
  %41 = load i64, ptr %8, align 8
  %42 = load i64, ptr %9, align 8
  %43 = udiv i64 -1, %42
  %44 = icmp ule i64 %41, %43
  br i1 %44, label %45, label %50

45:                                               ; preds = %40, %37
  %46 = load i64, ptr %8, align 8
  %47 = load i64, ptr %9, align 8
  %48 = mul i64 %46, %47
  %49 = call noalias ptr @g_malloc0(i64 noundef %48) #11
  store ptr %49, ptr %10, align 8
  br label %54

50:                                               ; preds = %40, %34
  %51 = load i64, ptr %8, align 8
  %52 = load i64, ptr %9, align 8
  %53 = call noalias ptr @g_malloc0_n(i64 noundef %51, i64 noundef %52) #12
  store ptr %53, ptr %10, align 8
  br label %54

54:                                               ; preds = %50, %45
  br label %55

55:                                               ; preds = %54, %31
  %56 = load ptr, ptr %10, align 8
  store ptr %56, ptr %11, align 8
  call void @llvm.lifetime.end.p0(i64 8, ptr %10) #10
  call void @llvm.lifetime.end.p0(i64 8, ptr %9) #10
  call void @llvm.lifetime.end.p0(i64 8, ptr %8) #10
  %57 = load ptr, ptr %11, align 8
  store ptr %57, ptr %6, align 8
  %58 = load ptr, ptr %6, align 8
  %59 = getelementptr inbounds nuw %struct._extcap_dlt, ptr %58, i32 0, i32 0
  store i32 -1, ptr %59, align 8
  %60 = load ptr, ptr %6, align 8
  %61 = getelementptr inbounds nuw %struct._extcap_dlt, ptr %60, i32 0, i32 1
  store ptr null, ptr %61, align 8
  %62 = load ptr, ptr %6, align 8
  %63 = getelementptr inbounds nuw %struct._extcap_dlt, ptr %62, i32 0, i32 2
  store ptr null, ptr %63, align 8
  %64 = load ptr, ptr %3, align 8
  %65 = getelementptr inbounds nuw %struct._extcap_token_sentence, ptr %64, i32 0, i32 1
  %66 = load ptr, ptr %65, align 8
  %67 = call ptr @g_hash_table_lookup(ptr noundef %66, ptr noundef inttoptr (i64 1 to ptr))
  store ptr %67, ptr %4, align 8
  %68 = icmp eq ptr %67, null
  br i1 %68, label %69, label %72

69:                                               ; preds = %55
  %70 = call i32 (i32, ptr, ...) @__printf_chk(i32 noundef 2, ptr noundef @.str.63)
  %71 = load ptr, ptr %6, align 8
  call void @g_free(ptr noundef %71)
  store ptr null, ptr %2, align 8
  store i32 1, ptr %7, align 4
  br label %112

72:                                               ; preds = %55
  %73 = load ptr, ptr %4, align 8
  %74 = load ptr, ptr %6, align 8
  %75 = getelementptr inbounds nuw %struct._extcap_dlt, ptr %74, i32 0, i32 0
  %76 = call i32 (ptr, ptr, ...) @__isoc99_sscanf(ptr noundef %73, ptr noundef @.str.31, ptr noundef %75) #10
  %77 = icmp ne i32 %76, 1
  br i1 %77, label %78, label %81

78:                                               ; preds = %72
  %79 = call i32 (i32, ptr, ...) @__printf_chk(i32 noundef 2, ptr noundef @.str.64)
  %80 = load ptr, ptr %6, align 8
  call void @g_free(ptr noundef %80)
  store ptr null, ptr %2, align 8
  store i32 1, ptr %7, align 4
  br label %112

81:                                               ; preds = %72
  %82 = load ptr, ptr %3, align 8
  %83 = getelementptr inbounds nuw %struct._extcap_token_sentence, ptr %82, i32 0, i32 1
  %84 = load ptr, ptr %83, align 8
  %85 = call ptr @g_hash_table_lookup(ptr noundef %84, ptr noundef inttoptr (i64 11 to ptr))
  store ptr %85, ptr %4, align 8
  %86 = icmp eq ptr %85, null
  br i1 %86, label %87, label %90

87:                                               ; preds = %81
  %88 = call i32 (i32, ptr, ...) @__printf_chk(i32 noundef 2, ptr noundef @.str.65)
  %89 = load ptr, ptr %6, align 8
  call void @g_free(ptr noundef %89)
  store ptr null, ptr %2, align 8
  store i32 1, ptr %7, align 4
  br label %112

90:                                               ; preds = %81
  %91 = load ptr, ptr %4, align 8
  %92 = call noalias ptr @g_strdup(ptr noundef %91)
  %93 = load ptr, ptr %6, align 8
  %94 = getelementptr inbounds nuw %struct._extcap_dlt, ptr %93, i32 0, i32 1
  store ptr %92, ptr %94, align 8
  %95 = load ptr, ptr %3, align 8
  %96 = getelementptr inbounds nuw %struct._extcap_token_sentence, ptr %95, i32 0, i32 1
  %97 = load ptr, ptr %96, align 8
  %98 = call ptr @g_hash_table_lookup(ptr noundef %97, ptr noundef inttoptr (i64 3 to ptr))
  store ptr %98, ptr %4, align 8
  %99 = icmp eq ptr %98, null
  br i1 %99, label %100, label %106

100:                                              ; preds = %90
  %101 = call i32 (i32, ptr, ...) @__printf_chk(i32 noundef 2, ptr noundef @.str.66)
  %102 = load ptr, ptr %6, align 8
  %103 = getelementptr inbounds nuw %struct._extcap_dlt, ptr %102, i32 0, i32 1
  %104 = load ptr, ptr %103, align 8
  call void @g_free(ptr noundef %104)
  %105 = load ptr, ptr %6, align 8
  call void @g_free(ptr noundef %105)
  store ptr null, ptr %2, align 8
  store i32 1, ptr %7, align 4
  br label %112

106:                                              ; preds = %90
  %107 = load ptr, ptr %4, align 8
  %108 = call noalias ptr @g_strdup(ptr noundef %107)
  %109 = load ptr, ptr %6, align 8
  %110 = getelementptr inbounds nuw %struct._extcap_dlt, ptr %109, i32 0, i32 2
  store ptr %108, ptr %110, align 8
  %111 = load ptr, ptr %6, align 8
  store ptr %111, ptr %2, align 8
  store i32 1, ptr %7, align 4
  br label %112

112:                                              ; preds = %106, %100, %87, %78, %69, %26, %14
  call void @llvm.lifetime.end.p0(i64 8, ptr %6) #10
  call void @llvm.lifetime.end.p0(i64 4, ptr %5) #10
  call void @llvm.lifetime.end.p0(i64 8, ptr %4) #10
  %113 = load ptr, ptr %2, align 8
  ret ptr %113
}

; Function Attrs: null_pointer_is_valid sspstrong uwtable
define hidden ptr @extcap_parse_dlts(ptr noundef %0) #0 {
  %2 = alloca ptr, align 8
  %3 = alloca ptr, align 8
  %4 = alloca ptr, align 8
  %5 = alloca ptr, align 8
  %6 = alloca ptr, align 8
  store ptr %0, ptr %2, align 8
  call void @llvm.lifetime.start.p0(i64 8, ptr %3) #10
  store ptr null, ptr %3, align 8
  call void @llvm.lifetime.start.p0(i64 8, ptr %4) #10
  store ptr null, ptr %4, align 8
  call void @llvm.lifetime.start.p0(i64 8, ptr %5) #10
  store ptr null, ptr %5, align 8
  %7 = load ptr, ptr %2, align 8
  %8 = call ptr @extcap_tokenize_sentences(ptr noundef %7)
  store ptr %8, ptr %3, align 8
  %9 = load ptr, ptr %3, align 8
  store ptr %9, ptr %4, align 8
  br label %10

10:                                               ; preds = %31, %1
  %11 = load ptr, ptr %3, align 8
  %12 = icmp ne ptr %11, null
  br i1 %12, label %13, label %33

13:                                               ; preds = %10
  call void @llvm.lifetime.start.p0(i64 8, ptr %6) #10
  store ptr null, ptr %6, align 8
  %14 = load ptr, ptr %3, align 8
  %15 = getelementptr inbounds nuw %struct._GList, ptr %14, i32 0, i32 0
  %16 = load ptr, ptr %15, align 8
  %17 = call ptr @extcap_parse_dlt_sentence(ptr noundef %16)
  store ptr %17, ptr %6, align 8
  %18 = icmp ne ptr %17, null
  br i1 %18, label %19, label %23

19:                                               ; preds = %13
  %20 = load ptr, ptr %5, align 8
  %21 = load ptr, ptr %6, align 8
  %22 = call ptr @g_list_append(ptr noundef %20, ptr noundef %21)
  store ptr %22, ptr %5, align 8
  br label %23

23:                                               ; preds = %19, %13
  %24 = load ptr, ptr %3, align 8
  %25 = icmp ne ptr %24, null
  br i1 %25, label %26, label %30

26:                                               ; preds = %23
  %27 = load ptr, ptr %3, align 8
  %28 = getelementptr inbounds nuw %struct._GList, ptr %27, i32 0, i32 1
  %29 = load ptr, ptr %28, align 8
  br label %31

30:                                               ; preds = %23
  br label %31

31:                                               ; preds = %30, %26
  %32 = phi ptr [ %29, %26 ], [ null, %30 ]
  store ptr %32, ptr %3, align 8
  call void @llvm.lifetime.end.p0(i64 8, ptr %6) #10
  br label %10, !llvm.loop !11

33:                                               ; preds = %10
  %34 = load ptr, ptr %4, align 8
  call void @extcap_free_tokenized_sentences(ptr noundef %34)
  %35 = load ptr, ptr %5, align 8
  call void @llvm.lifetime.end.p0(i64 8, ptr %5) #10
  call void @llvm.lifetime.end.p0(i64 8, ptr %4) #10
  call void @llvm.lifetime.end.p0(i64 8, ptr %3) #10
  ret ptr %35
}