; Function Attrs: null_pointer_is_valid sspstrong uwtable
define hidden ptr @extcap_parse_dlts(ptr noundef %0) local_unnamed_addr #0 {
  %2 = tail call fastcc ptr @extcap_tokenize_sentences(ptr noundef %0)
  %.not15 = icmp eq ptr %2, null
  br i1 %.not15, label %extcap_free_tokenized_sentences.exit, label %.lr.ph

.lr.ph:                                           ; preds = %1, %extcap_parse_dlt_sentence.exit.thread
  %.017 = phi ptr [ %.1, %extcap_parse_dlt_sentence.exit.thread ], [ null, %1 ]
  %.01016 = phi ptr [ %40, %extcap_parse_dlt_sentence.exit.thread ], [ %2, %1 ]
  %3 = load ptr, ptr %.01016, align 8
  %4 = icmp eq ptr %3, null
  br i1 %4, label %extcap_parse_dlt_sentence.exit.thread, label %5

5:                                                ; preds = %.lr.ph
  %6 = load ptr, ptr %3, align 8
  %7 = tail call i32 @g_ascii_strcasecmp(ptr noundef %6, ptr noundef nonnull @.str.62)
  %.not.i = icmp eq i32 %7, 0
  br i1 %.not.i, label %8, label %extcap_parse_dlt_sentence.exit.thread

8:                                                ; preds = %5
  %9 = tail call noalias dereferenceable_or_null(24) ptr @g_malloc0(i64 noundef 24) #8
  store i32 -1, ptr %9, align 8
  %10 = getelementptr inbounds nuw i8, ptr %9, i64 8
  %11 = getelementptr inbounds nuw i8, ptr %9, i64 16
  %12 = getelementptr inbounds nuw i8, ptr %3, i64 8
  tail call void @llvm.memset.p0.i64(ptr noundef nonnull align 8 dereferenceable(16) %10, i8 0, i64 16, i1 false)
  %13 = load ptr, ptr %12, align 8
  %14 = tail call ptr @g_hash_table_lookup(ptr noundef %13, ptr noundef nonnull inttoptr (i64 1 to ptr))
  %15 = icmp eq ptr %14, null
  br i1 %15, label %16, label %18

16:                                               ; preds = %8
  %17 = tail call i32 (i32, ptr, ...) @__printf_chk(i32 noundef 2, ptr noundef nonnull @.str.63)
  tail call void @g_free(ptr noundef %9)
  br label %extcap_parse_dlt_sentence.exit.thread

18:                                               ; preds = %8
  %19 = tail call i32 (ptr, ptr, ...) @__isoc99_sscanf(ptr noundef nonnull %14, ptr noundef nonnull @.str.31, ptr noundef %9) #9
  %.not41.i = icmp eq i32 %19, 1
  br i1 %.not41.i, label %22, label %20

20:                                               ; preds = %18
  %21 = tail call i32 (i32, ptr, ...) @__printf_chk(i32 noundef 2, ptr noundef nonnull @.str.64)
  tail call void @g_free(ptr noundef %9)
  br label %extcap_parse_dlt_sentence.exit.thread

22:                                               ; preds = %18
  %23 = load ptr, ptr %12, align 8
  %24 = tail call ptr @g_hash_table_lookup(ptr noundef %23, ptr noundef nonnull inttoptr (i64 11 to ptr))
  %25 = icmp eq ptr %24, null
  br i1 %25, label %26, label %28

26:                                               ; preds = %22
  %27 = tail call i32 (i32, ptr, ...) @__printf_chk(i32 noundef 2, ptr noundef nonnull @.str.65)
  tail call void @g_free(ptr noundef %9)
  br label %extcap_parse_dlt_sentence.exit.thread

28:                                               ; preds = %22
  %29 = tail call noalias ptr @g_strdup(ptr noundef nonnull %24)
  store ptr %29, ptr %10, align 8
  %30 = load ptr, ptr %12, align 8
  %31 = tail call ptr @g_hash_table_lookup(ptr noundef %30, ptr noundef nonnull inttoptr (i64 3 to ptr))
  %32 = icmp eq ptr %31, null
  br i1 %32, label %33, label %extcap_parse_dlt_sentence.exit

33:                                               ; preds = %28
  %34 = tail call i32 (i32, ptr, ...) @__printf_chk(i32 noundef 2, ptr noundef nonnull @.str.66)
  %35 = load ptr, ptr %10, align 8
  tail call void @g_free(ptr noundef %35)
  tail call void @g_free(ptr noundef %9)
  br label %extcap_parse_dlt_sentence.exit.thread

extcap_parse_dlt_sentence.exit:                   ; preds = %28
  %36 = tail call noalias ptr @g_strdup(ptr noundef nonnull %31)
  store ptr %36, ptr %11, align 8
  %.not12 = icmp eq ptr %9, null
  br i1 %.not12, label %extcap_parse_dlt_sentence.exit.thread, label %37

37:                                               ; preds = %extcap_parse_dlt_sentence.exit
  %38 = tail call ptr @g_list_append(ptr noundef %.017, ptr noundef nonnull %9)
  br label %extcap_parse_dlt_sentence.exit.thread

extcap_parse_dlt_sentence.exit.thread:            ; preds = %5, %.lr.ph, %33, %26, %20, %16, %37, %extcap_parse_dlt_sentence.exit
  %.1 = phi ptr [ %38, %37 ], [ %.017, %extcap_parse_dlt_sentence.exit ], [ %.017, %16 ], [ %.017, %20 ], [ %.017, %26 ], [ %.017, %33 ], [ %.017, %.lr.ph ], [ %.017, %5 ]
  %39 = getelementptr inbounds nuw i8, ptr %.01016, i64 8
  %40 = load ptr, ptr %39, align 8
  %.not = icmp eq ptr %40, null
  br i1 %.not, label %._crit_edge, label %.lr.ph, !llvm.loop !11

._crit_edge:                                      ; preds = %extcap_parse_dlt_sentence.exit.thread
  tail call void @g_list_foreach(ptr noundef nonnull %2, ptr noundef nonnull @extcap_free_tokenized_sentence, ptr noundef null)
  tail call void @g_list_free(ptr noundef nonnull %2)
  br label %extcap_free_tokenized_sentences.exit

extcap_free_tokenized_sentences.exit:             ; preds = %1, %._crit_edge
  %.0.lcssa19 = phi ptr [ %.1, %._crit_edge ], [ null, %1 ]
  ret ptr %.0.lcssa19
}